target datalayout = "e-m:e-p270:32:32-p271:32:32-p272:64:64-i64:64-i128:128-f80:128-n8:16:32:64-S128"
target triple = "x86_64-pc-linux-gnu"

%struct.exr_attribute_list = type { i32, i32, ptr, ptr }
%struct._priv_exr_context_t = type { i8, i8, i8, i8, i8, i8, i8, i8, %struct.exr_attr_string_t, %struct.exr_attr_string_t, ptr, ptr, ptr, ptr, ptr, ptr, ptr, ptr, i32, i32, i32, i32, i32, float, ptr, ptr, ptr, i64, ptr, ptr, i64, i32, i32, i32, i32, %struct._priv_exr_part_t, ptr, ptr, %struct.exr_attribute_list, %union.pthread_mutex_t, i8, i8, [2 x i8], i32 }
%struct.exr_attr_string_t = type { i32, i32, ptr }
%struct._priv_exr_part_t = type { i32, i32, %struct.exr_attribute_list, ptr, ptr, ptr, ptr, ptr, ptr, ptr, ptr, ptr, ptr, ptr, ptr, ptr, ptr, %struct.exr_attr_box2i_t, %struct.exr_attr_box2i_t, i32, i32, i32, float, i32, i32, ptr, ptr, ptr, ptr, i64, i16, i16, i32, i64, i64 }
%struct.exr_attr_box2i_t = type { %struct.exr_attr_v2i_t, %struct.exr_attr_v2i_t }
%struct.exr_attr_v2i_t = type { i32, i32 }
%union.pthread_mutex_t = type { %struct.__pthread_mutex_s }
%struct.__pthread_mutex_s = type { i32, i32, i32, i32, i32, i16, i16, %struct.__pthread_internal_list }
%struct.__pthread_internal_list = type { ptr, ptr }
%struct.exr_attribute_t = type { ptr, ptr, i8, i8, [2 x i8], i32, %union.anon }
%union.anon = type { double }
%struct.exr_attr_opaquedata_t = type { i32, i32, i32, [4 x i8], ptr, ptr, ptr, ptr, ptr }

@.str.3 = private unnamed_addr constant [46 x i8] c"Invalid output pointer passed to find_by_name\00", align 1
@.str.4 = private unnamed_addr constant [36 x i8] c"Invalid name passed to find_by_name\00", align 1
@.str.5 = private unnamed_addr constant [44 x i8] c"Invalid list pointer passed to find_by_name\00", align 1

; Function Attrs: nounwind uwtable
define hidden i32 @exr_attr_list_find_by_name(ptr noundef %0, ptr noundef %1, ptr noundef %2, ptr noundef %3) #0 {
  %5 = alloca i32, align 4
  %6 = alloca ptr, align 8
  %7 = alloca ptr, align 8
  %8 = alloca ptr, align 8
  %9 = alloca ptr, align 8
  %10 = alloca ptr, align 8
  %11 = alloca ptr, align 8
  %12 = alloca ptr, align 8
  %13 = alloca i32, align 4
  %14 = alloca i32, align 4
  %15 = alloca i32, align 4
  %16 = alloca i32, align 4
  store ptr %0, ptr %6, align 8, !tbaa !15
  store ptr %1, ptr %7, align 8, !tbaa !17
  store ptr %2, ptr %8, align 8, !tbaa !3
  store ptr %3, ptr %9, align 8, !tbaa !37
  call void @llvm.lifetime.start.p0(i64 8, ptr %10) #6
  store ptr null, ptr %10, align 8, !tbaa !37
  call void @llvm.lifetime.start.p0(i64 8, ptr %11) #6
  store ptr null, ptr %11, align 8, !tbaa !37
  call void @llvm.lifetime.start.p0(i64 8, ptr %12) #6
  store ptr null, ptr %12, align 8, !tbaa !37
  call void @llvm.lifetime.start.p0(i64 4, ptr %13) #6
  call void @llvm.lifetime.start.p0(i64 4, ptr %14) #6
  call void @llvm.lifetime.start.p0(i64 4, ptr %15) #6
  %17 = load ptr, ptr %6, align 8, !tbaa !15
  %18 = icmp ne ptr %17, null
  br i1 %18, label %20, label %19

19:                                               ; preds = %4
  store i32 2, ptr %5, align 4
  store i32 1, ptr %16, align 4
  br label %126

20:                                               ; preds = %4
  %21 = load ptr, ptr %9, align 8, !tbaa !37
  %22 = icmp ne ptr %21, null
  br i1 %22, label %29, label %23

23:                                               ; preds = %20
  %24 = load ptr, ptr %6, align 8, !tbaa !15
  %25 = getelementptr inbounds nuw %struct._priv_exr_context_t, ptr %24, i32 0, i32 13
  %26 = load ptr, ptr %25, align 8, !tbaa !44
  %27 = load ptr, ptr %6, align 8, !tbaa !15
  %28 = call i32 %26(ptr noundef %27, i32 noundef 3, ptr noundef @.str.3)
  store i32 %28, ptr %5, align 4
  store i32 1, ptr %16, align 4
  br label %126

29:                                               ; preds = %20
  %30 = load ptr, ptr %8, align 8, !tbaa !3
  %31 = icmp ne ptr %30, null
  br i1 %31, label %32, label %38

32:                                               ; preds = %29
  %33 = load ptr, ptr %8, align 8, !tbaa !3
  %34 = getelementptr inbounds i8, ptr %33, i64 0
  %35 = load i8, ptr %34, align 1, !tbaa !40
  %36 = sext i8 %35 to i32
  %37 = icmp eq i32 %36, 0
  br i1 %37, label %38, label %44

38:                                               ; preds = %32, %29
  %39 = load ptr, ptr %6, align 8, !tbaa !15
  %40 = getelementptr inbounds nuw %struct._priv_exr_context_t, ptr %39, i32 0, i32 13
  %41 = load ptr, ptr %40, align 8, !tbaa !44
  %42 = load ptr, ptr %6, align 8, !tbaa !15
  %43 = call i32 %41(ptr noundef %42, i32 noundef 3, ptr noundef @.str.4)
  store i32 %43, ptr %5, align 4
  store i32 1, ptr %16, align 4
  br label %126

44:                                               ; preds = %32
  %45 = load ptr, ptr %7, align 8, !tbaa !17
  %46 = icmp ne ptr %45, null
  br i1 %46, label %53, label %47

47:                                               ; preds = %44
  %48 = load ptr, ptr %6, align 8, !tbaa !15
  %49 = getelementptr inbounds nuw %struct._priv_exr_context_t, ptr %48, i32 0, i32 13
  %50 = load ptr, ptr %49, align 8, !tbaa !44
  %51 = load ptr, ptr %6, align 8, !tbaa !15
  %52 = call i32 %50(ptr noundef %51, i32 noundef 3, ptr noundef @.str.5)
  store i32 %52, ptr %5, align 4
  store i32 1, ptr %16, align 4
  br label %126

53:                                               ; preds = %44
  %54 = load ptr, ptr %7, align 8, !tbaa !17
  %55 = getelementptr inbounds nuw %struct.exr_attribute_list, ptr %54, i32 0, i32 3
  %56 = load ptr, ptr %55, align 8, !tbaa !69
  %57 = icmp ne ptr %56, null
  br i1 %57, label %58, label %125

58:                                               ; preds = %53
  %59 = load ptr, ptr %7, align 8, !tbaa !17
  %60 = getelementptr inbounds nuw %struct.exr_attribute_list, ptr %59, i32 0, i32 3
  %61 = load ptr, ptr %60, align 8, !tbaa !69
  store ptr %61, ptr %11, align 8, !tbaa !37
  %62 = load ptr, ptr %7, align 8, !tbaa !17
  %63 = getelementptr inbounds nuw %struct.exr_attribute_list, ptr %62, i32 0, i32 0
  %64 = load i32, ptr %63, align 8, !tbaa !22
  store i32 %64, ptr %14, align 4, !tbaa !8
  %65 = load ptr, ptr %11, align 8, !tbaa !37
  %66 = load i32, ptr %14, align 4, !tbaa !8
  %67 = sext i32 %66 to i64
  %68 = getelementptr inbounds ptr, ptr %65, i64 %67
  store ptr %68, ptr %12, align 8, !tbaa !37
  br label %69

69:                                               ; preds = %104, %58
  %70 = load i32, ptr %14, align 4, !tbaa !8
  %71 = icmp sgt i32 %70, 0
  br i1 %71, label %72, label %105

72:                                               ; preds = %69
  %73 = load ptr, ptr %11, align 8, !tbaa !37
  store ptr %73, ptr %10, align 8, !tbaa !37
  %74 = load i32, ptr %14, align 4, !tbaa !8
  %75 = sdiv i32 %74, 2
  store i32 %75, ptr %13, align 4, !tbaa !8
  %76 = load i32, ptr %13, align 4, !tbaa !8
  %77 = load ptr, ptr %10, align 8, !tbaa !37
  %78 = sext i32 %76 to i64
  %79 = getelementptr inbounds ptr, ptr %77, i64 %78
  store ptr %79, ptr %10, align 8, !tbaa !37
  %80 = load ptr, ptr %10, align 8, !tbaa !37
  %81 = load ptr, ptr %80, align 8, !tbaa !23
  %82 = getelementptr inbounds nuw %struct.exr_attribute_t, ptr %81, i32 0, i32 0
  %83 = load ptr, ptr %82, align 8, !tbaa !67
  %84 = load ptr, ptr %8, align 8, !tbaa !3
  %85 = call i32 @strcmp(ptr noundef %83, ptr noundef %84) #7
  store i32 %85, ptr %15, align 4, !tbaa !8
  %86 = load i32, ptr %15, align 4, !tbaa !8
  %87 = icmp eq i32 %86, 0
  br i1 %87, label %88, label %92

88:                                               ; preds = %72
  %89 = load ptr, ptr %10, align 8, !tbaa !37
  %90 = load ptr, ptr %89, align 8, !tbaa !23
  %91 = load ptr, ptr %9, align 8, !tbaa !37
  store ptr %90, ptr %91, align 8, !tbaa !23
  store i32 0, ptr %5, align 4
  store i32 1, ptr %16, align 4
  br label %126

92:                                               ; preds = %72
  %93 = load i32, ptr %15, align 4, !tbaa !8
  %94 = icmp slt i32 %93, 0
  br i1 %94, label %95, label %102

95:                                               ; preds = %92
  %96 = load ptr, ptr %10, align 8, !tbaa !37
  %97 = getelementptr inbounds nuw ptr, ptr %96, i32 1
  store ptr %97, ptr %10, align 8, !tbaa !37
  store ptr %97, ptr %11, align 8, !tbaa !37
  %98 = load i32, ptr %13, align 4, !tbaa !8
  %99 = add nsw i32 %98, 1
  %100 = load i32, ptr %14, align 4, !tbaa !8
  %101 = sub nsw i32 %100, %99
  store i32 %101, ptr %14, align 4, !tbaa !8
  br label %104

102:                                              ; preds = %92
  %103 = load i32, ptr %13, align 4, !tbaa !8
  store i32 %103, ptr %14, align 4, !tbaa !8
  br label %104

104:                                              ; preds = %102, %95
  br label %69, !llvm.loop !70

105:                                              ; preds = %69
  %106 = load ptr, ptr %11, align 8, !tbaa !37
  %107 = icmp ne ptr %106, null
  br i1 %107, label %108, label %124

108:                                              ; preds = %105
  %109 = load ptr, ptr %11, align 8, !tbaa !37
  %110 = load ptr, ptr %12, align 8, !tbaa !37
  %111 = icmp ult ptr %109, %110
  br i1 %111, label %112, label %124

112:                                              ; preds = %108
  %113 = load ptr, ptr %11, align 8, !tbaa !37
  %114 = load ptr, ptr %113, align 8, !tbaa !23
  %115 = getelementptr inbounds nuw %struct.exr_attribute_t, ptr %114, i32 0, i32 0
  %116 = load ptr, ptr %115, align 8, !tbaa !67
  %117 = load ptr, ptr %8, align 8, !tbaa !3
  %118 = call i32 @strcmp(ptr noundef %116, ptr noundef %117) #7
  %119 = icmp eq i32 0, %118
  br i1 %119, label %120, label %124

120:                                              ; preds = %112
  %121 = load ptr, ptr %11, align 8, !tbaa !37
  %122 = load ptr, ptr %121, align 8, !tbaa !23
  %123 = load ptr, ptr %9, align 8, !tbaa !37
  store ptr %122, ptr %123, align 8, !tbaa !23
  store i32 0, ptr %5, align 4
  store i32 1, ptr %16, align 4
  br label %126

124:                                              ; preds = %112, %108, %105
  br label %125

125:                                              ; preds = %124, %53
  store i32 15, ptr %5, align 4
  store i32 1, ptr %16, align 4
  br label %126

126:                                              ; preds = %125, %120, %88, %47, %38, %23, %19
  call void @llvm.lifetime.end.p0(i64 4, ptr %15) #6
  call void @llvm.lifetime.end.p0(i64 4, ptr %14) #6
  call void @llvm.lifetime.end.p0(i64 4, ptr %13) #6
  call void @llvm.lifetime.end.p0(i64 8, ptr %12) #6
  call void @llvm.lifetime.end.p0(i64 8, ptr %11) #6
  call void @llvm.lifetime.end.p0(i64 8, ptr %10) #6
  %127 = load i32, ptr %5, align 4
  ret i32 %127
}

; Function Attrs: nounwind uwtable
define internal void @check_attr_handler(ptr noundef %0, ptr noundef %1) #0 {
  %3 = alloca ptr, align 8
  %4 = alloca ptr, align 8
  %5 = alloca ptr, align 8
  %6 = alloca i32, align 4
  store ptr %0, ptr %3, align 8, !tbaa !15
  store ptr %1, ptr %4, align 8, !tbaa !23
  %7 = load ptr, ptr %4, align 8, !tbaa !23
  %8 = getelementptr inbounds nuw %struct.exr_attribute_t, ptr %7, i32 0, i32 5
  %9 = load i32, ptr %8, align 4, !tbaa !38
  %10 = icmp eq i32 %9, 30
  br i1 %10, label %11, label %53

11:                                               ; preds = %2
  call void @llvm.lifetime.start.p0(i64 8, ptr %5) #6
  store ptr null, ptr %5, align 8, !tbaa !23
  call void @llvm.lifetime.start.p0(i64 4, ptr %6) #6
  %12 = load ptr, ptr %3, align 8, !tbaa !15
  %13 = load ptr, ptr %3, align 8, !tbaa !15
  %14 = getelementptr inbounds nuw %struct._priv_exr_context_t, ptr %13, i32 0, i32 38
  %15 = load ptr, ptr %4, align 8, !tbaa !23
  %16 = getelementptr inbounds nuw %struct.exr_attribute_t, ptr %15, i32 0, i32 1
  %17 = load ptr, ptr %16, align 8, !tbaa !66
  %18 = call i32 @exr_attr_list_find_by_name(ptr noundef %12, ptr noundef %14, ptr noundef %17, ptr noundef %5)
  store i32 %18, ptr %6, align 4, !tbaa !8
  %19 = load i32, ptr %6, align 4, !tbaa !8
  %20 = icmp eq i32 %19, 0
  br i1 %20, label %21, label %52

21:                                               ; preds = %11
  %22 = load ptr, ptr %5, align 8, !tbaa !23
  %23 = icmp ne ptr %22, null
  br i1 %23, label %24, label %52

24:                                               ; preds = %21
  %25 = load ptr, ptr %5, align 8, !tbaa !23
  %26 = getelementptr inbounds nuw %struct.exr_attribute_t, ptr %25, i32 0, i32 6
  %27 = load ptr, ptr %26, align 8, !tbaa !40
  %28 = getelementptr inbounds nuw %struct.exr_attr_opaquedata_t, ptr %27, i32 0, i32 6
  %29 = load ptr, ptr %28, align 8, !tbaa !86
  %30 = load ptr, ptr %4, align 8, !tbaa !23
  %31 = getelementptr inbounds nuw %struct.exr_attribute_t, ptr %30, i32 0, i32 6
  %32 = load ptr, ptr %31, align 8, !tbaa !40
  %33 = getelementptr inbounds nuw %struct.exr_attr_opaquedata_t, ptr %32, i32 0, i32 6
  store ptr %29, ptr %33, align 8, !tbaa !86
  %34 = load ptr, ptr %5, align 8, !tbaa !23
  %35 = getelementptr inbounds nuw %struct.exr_attribute_t, ptr %34, i32 0, i32 6
  %36 = load ptr, ptr %35, align 8, !tbaa !40
  %37 = getelementptr inbounds nuw %struct.exr_attr_opaquedata_t, ptr %36, i32 0, i32 7
  %38 = load ptr, ptr %37, align 8, !tbaa !87
  %39 = load ptr, ptr %4, align 8, !tbaa !23
  %40 = getelementptr inbounds nuw %struct.exr_attribute_t, ptr %39, i32 0, i32 6
  %41 = load ptr, ptr %40, align 8, !tbaa !40
  %42 = getelementptr inbounds nuw %struct.exr_attr_opaquedata_t, ptr %41, i32 0, i32 7
  store ptr %38, ptr %42, align 8, !tbaa !87
  %43 = load ptr, ptr %5, align 8, !tbaa !23
  %44 = getelementptr inbounds nuw %struct.exr_attribute_t, ptr %43, i32 0, i32 6
  %45 = load ptr, ptr %44, align 8, !tbaa !40
  %46 = getelementptr inbounds nuw %struct.exr_attr_opaquedata_t, ptr %45, i32 0, i32 8
  %47 = load ptr, ptr %46, align 8, !tbaa !88
  %48 = load ptr, ptr %4, align 8, !tbaa !23
  %49 = getelementptr inbounds nuw %struct.exr_attribute_t, ptr %48, i32 0, i32 6
  %50 = load ptr, ptr %49, align 8, !tbaa !40
  %51 = getelementptr inbounds nuw %struct.exr_attr_opaquedata_t, ptr %50, i32 0, i32 8
  store ptr %47, ptr %51, align 8, !tbaa !88
  br label %52

52:                                               ; preds = %24, %21, %11
  call void @llvm.lifetime.end.p0(i64 4, ptr %6) #6
  call void @llvm.lifetime.end.p0(i64 8, ptr %5) #6
  br label %53

53:                                               ; preds = %52, %2
  ret void
}