; Function Attrs: nounwind uwtable
define internal fastcc void @check_attr_handler(ptr noundef nonnull %0, ptr noundef readonly captures(none) %1) unnamed_addr #3 {
  %3 = getelementptr inbounds nuw i8, ptr %1, i64 20
  %4 = load i32, ptr %3, align 4, !tbaa !30
  %5 = icmp eq i32 %4, 30
  br i1 %5, label %6, label %exr_attr_list_find_by_name.exit.thread

6:                                                ; preds = %2
  %7 = getelementptr inbounds nuw i8, ptr %0, i64 480
  %8 = getelementptr inbounds nuw i8, ptr %1, i64 8
  %9 = load ptr, ptr %8, align 8, !tbaa !56
  %.not48.i = icmp eq ptr %9, null
  br i1 %.not48.i, label %13, label %10

10:                                               ; preds = %6
  %11 = load i8, ptr %9, align 1, !tbaa !32
  %12 = icmp eq i8 %11, 0
  br i1 %12, label %13, label %17

13:                                               ; preds = %10, %6
  %14 = getelementptr inbounds nuw i8, ptr %0, i64 64
  %15 = load ptr, ptr %14, align 8, !tbaa !33
  %16 = tail call i32 %15(ptr noundef nonnull %0, i32 noundef 3, ptr noundef nonnull @.str.4) #9
  br label %exr_attr_list_find_by_name.exit.thread

17:                                               ; preds = %10
  %18 = getelementptr inbounds nuw i8, ptr %0, i64 496
  %19 = load ptr, ptr %18, align 8, !tbaa !60
  %.not50.i = icmp eq ptr %19, null
  br i1 %.not50.i, label %exr_attr_list_find_by_name.exit.thread, label %20

20:                                               ; preds = %17
  %21 = load i32, ptr %7, align 8, !tbaa !16
  %22 = sext i32 %21 to i64
  %23 = getelementptr inbounds ptr, ptr %19, i64 %22
  %24 = icmp sgt i32 %21, 0
  br i1 %24, label %.lr.ph.i, label %._crit_edge.i

.lr.ph.i:                                         ; preds = %20, %32
  %.03853.i = phi i32 [ %.1.i, %32 ], [ %21, %20 ]
  %.03952.i = phi ptr [ %.140.i, %32 ], [ %19, %20 ]
  %25 = lshr i32 %.03853.i, 1
  %26 = zext nneg i32 %25 to i64
  %27 = getelementptr inbounds nuw ptr, ptr %.03952.i, i64 %26
  %28 = load ptr, ptr %27, align 8, !tbaa !28
  %29 = load ptr, ptr %28, align 8, !tbaa !57
  %30 = tail call i32 @strcmp(ptr noundef nonnull dereferenceable(1) %29, ptr noundef nonnull readonly dereferenceable(1) %9) #8
  %31 = icmp eq i32 %30, 0
  br i1 %31, label %exr_attr_list_find_by_name.exit, label %32

32:                                               ; preds = %.lr.ph.i
  %33 = icmp slt i32 %30, 0
  %34 = getelementptr inbounds nuw i8, ptr %27, i64 8
  %.neg.i = xor i32 %25, -1
  %35 = add nsw i32 %.03853.i, %.neg.i
  %.140.i = select i1 %33, ptr %34, ptr %.03952.i
  %.1.i = select i1 %33, i32 %35, i32 %25
  %36 = icmp sgt i32 %.1.i, 0
  br i1 %36, label %.lr.ph.i, label %._crit_edge.i, !llvm.loop !61

._crit_edge.i:                                    ; preds = %32, %20
  %.039.lcssa.i = phi ptr [ %19, %20 ], [ %.140.i, %32 ]
  %37 = icmp ult ptr %.039.lcssa.i, %23
  br i1 %37, label %38, label %exr_attr_list_find_by_name.exit.thread

38:                                               ; preds = %._crit_edge.i
  %39 = load ptr, ptr %.039.lcssa.i, align 8, !tbaa !28
  %40 = load ptr, ptr %39, align 8, !tbaa !57
  %41 = tail call i32 @strcmp(ptr noundef nonnull dereferenceable(1) %40, ptr noundef nonnull readonly dereferenceable(1) %9) #8
  %42 = icmp eq i32 %41, 0
  br i1 %42, label %exr_attr_list_find_by_name.exit, label %exr_attr_list_find_by_name.exit.thread

exr_attr_list_find_by_name.exit:                  ; preds = %.lr.ph.i, %38
  %.0 = phi ptr [ %39, %38 ], [ %28, %.lr.ph.i ]
  %43 = getelementptr inbounds nuw i8, ptr %.0, i64 24
  %44 = load ptr, ptr %43, align 8, !tbaa !32
  %45 = getelementptr inbounds nuw i8, ptr %44, i64 32
  %46 = load ptr, ptr %45, align 8, !tbaa !75
  %47 = getelementptr inbounds nuw i8, ptr %1, i64 24
  %48 = load ptr, ptr %47, align 8, !tbaa !32
  %49 = getelementptr inbounds nuw i8, ptr %48, i64 32
  store ptr %46, ptr %49, align 8, !tbaa !75
  %50 = load ptr, ptr %43, align 8, !tbaa !32
  %51 = getelementptr inbounds nuw i8, ptr %50, i64 40
  %52 = load ptr, ptr %51, align 8, !tbaa !76
  %53 = load ptr, ptr %47, align 8, !tbaa !32
  %54 = getelementptr inbounds nuw i8, ptr %53, i64 40
  store ptr %52, ptr %54, align 8, !tbaa !76
  %55 = load ptr, ptr %43, align 8, !tbaa !32
  %56 = getelementptr inbounds nuw i8, ptr %55, i64 48
  %57 = load ptr, ptr %56, align 8, !tbaa !77
  %58 = load ptr, ptr %47, align 8, !tbaa !32
  %59 = getelementptr inbounds nuw i8, ptr %58, i64 48
  store ptr %57, ptr %59, align 8, !tbaa !77
  br label %exr_attr_list_find_by_name.exit.thread

exr_attr_list_find_by_name.exit.thread:           ; preds = %13, %17, %38, %._crit_edge.i, %exr_attr_list_find_by_name.exit, %2
  ret void
}